target datalayout = "e-m:e-p270:32:32-p271:32:32-p272:64:64-i64:64-i128:128-f80:128-n8:16:32:64-S128"
target triple = "x86_64-pc-linux-gnu"

@ERR_MSG = global i32 1, align 4
@.str = private unnamed_addr constant [1 x i8] zeroinitializer, align 1
@stdout = external global ptr, align 8
@.str.17 = private unnamed_addr constant [5 x i8] c"%-*s\00", align 1
@INDENT_LEVEL = internal global i32 0, align 4
@HANGING_OUTPUT = internal global i8 0, align 1
@GLOBAL_PRINT_COUNT = internal global i32 0, align 4
@.str.77 = private unnamed_addr constant [2 x i8] c"!\00", align 1

; Function Attrs: nounwind uwtable
define internal void @vlog_err(ptr noundef %0, ptr noundef %1, ptr noundef %2) #0 {
  %4 = alloca ptr, align 8
  %5 = alloca ptr, align 8
  %6 = alloca ptr, align 8
  store ptr %0, ptr %4, align 8, !tbaa !15
  store ptr %1, ptr %5, align 8, !tbaa !15
  store ptr %2, ptr %6, align 8, !tbaa !36
  %7 = load i32, ptr @ERR_MSG, align 4, !tbaa !18
  %8 = icmp eq i32 %7, 0
  br i1 %8, label %9, label %10

9:                                                ; preds = %3
  br label %47

10:                                               ; preds = %3
  %11 = load ptr, ptr @stdout, align 8, !tbaa !27
  %12 = call i32 @fputs(ptr noundef @.str.77, ptr noundef %11)
  %13 = load ptr, ptr @stdout, align 8, !tbaa !27
  %14 = load i32, ptr @INDENT_LEVEL, align 4, !tbaa !18
  %15 = call i32 (ptr, ptr, ...) @fprintf(ptr noundef %13, ptr noundef @.str.17, i32 noundef %14, ptr noundef @.str) #12
  %16 = load ptr, ptr %4, align 8, !tbaa !15
  %17 = icmp ne ptr %16, null
  br i1 %17, label %18, label %22

18:                                               ; preds = %10
  %19 = load ptr, ptr %4, align 8, !tbaa !15
  %20 = load ptr, ptr @stdout, align 8, !tbaa !27
  %21 = call i32 @fputs(ptr noundef %19, ptr noundef %20)
  br label %22

22:                                               ; preds = %18, %10
  %23 = load ptr, ptr @stdout, align 8, !tbaa !27
  %24 = load ptr, ptr %5, align 8, !tbaa !15
  %25 = load ptr, ptr %6, align 8, !tbaa !36
  %26 = call i32 @vfprintf(ptr noundef %23, ptr noundef %24, ptr noundef %25) #12
  %27 = load ptr, ptr @stdout, align 8, !tbaa !27
  %28 = call i32 @fflush(ptr noundef %27)
  %29 = load ptr, ptr %5, align 8, !tbaa !15
  %30 = load i8, ptr %29, align 1, !tbaa !20
  %31 = sext i8 %30 to i32
  %32 = icmp eq i32 %31, 0
  br i1 %32, label %42, label %33

33:                                               ; preds = %22
  %34 = load ptr, ptr %5, align 8, !tbaa !15
  %35 = load ptr, ptr %5, align 8, !tbaa !15
  %36 = call i64 @strlen(ptr noundef %35) #14
  %37 = sub i64 %36, 1
  %38 = getelementptr inbounds nuw i8, ptr %34, i64 %37
  %39 = load i8, ptr %38, align 1, !tbaa !20
  %40 = sext i8 %39 to i32
  %41 = icmp ne i32 %40, 10
  br i1 %41, label %42, label %43

42:                                               ; preds = %33, %22
  store i8 1, ptr @HANGING_OUTPUT, align 1, !tbaa !20
  br label %44

43:                                               ; preds = %33
  store i8 0, ptr @HANGING_OUTPUT, align 1, !tbaa !20
  br label %44

44:                                               ; preds = %43, %42
  %45 = load i32, ptr @GLOBAL_PRINT_COUNT, align 4, !tbaa !18
  %46 = add nsw i32 %45, 1
  store i32 %46, ptr @GLOBAL_PRINT_COUNT, align 4, !tbaa !18
  br label %47

47:                                               ; preds = %44, %9
  ret void
}