; Function Attrs: nofree nounwind uwtable
define internal fastcc void @vlog_err(ptr noundef readonly captures(none) %0, ptr noundef nonnull %1) unnamed_addr #2 {
  %3 = load i32, ptr @ERR_MSG, align 4, !tbaa !18
  %4 = icmp eq i32 %3, 0
  br i1 %4, label %24, label %5

5:                                                ; preds = %2
  %6 = load ptr, ptr @stdout, align 8, !tbaa !16
  %fputc = tail call i32 @fputc(i32 33, ptr %6)
  %7 = load ptr, ptr @stdout, align 8, !tbaa !16
  %8 = load i32, ptr @INDENT_LEVEL, align 4, !tbaa !18
  %9 = tail call i32 (ptr, ptr, ...) @fprintf(ptr noundef %7, ptr noundef nonnull @.str.17, i32 noundef %8, ptr noundef nonnull @.str) #23
  %10 = load ptr, ptr @stdout, align 8, !tbaa !16
  %11 = tail call i32 @vfprintf(ptr noundef %10, ptr noundef %0, ptr noundef nonnull %1) #23
  %12 = load ptr, ptr @stdout, align 8, !tbaa !16
  %13 = tail call i32 @fflush(ptr noundef %12)
  %14 = load i8, ptr %0, align 1, !tbaa !11
  %15 = icmp eq i8 %14, 0
  br i1 %15, label %21, label %16

16:                                               ; preds = %5
  %17 = tail call i64 @strlen(ptr noundef nonnull dereferenceable(1) %0) #25
  %18 = getelementptr i8, ptr %0, i64 %17
  %19 = getelementptr i8, ptr %18, i64 -1
  %20 = load i8, ptr %19, align 1, !tbaa !11
  %.not = icmp ne i8 %20, 10
  br label %21

21:                                               ; preds = %16, %5
  %storemerge = phi i1 [ true, %5 ], [ %.not, %16 ]
  store i1 %storemerge, ptr @HANGING_OUTPUT, align 1
  %22 = load i32, ptr @GLOBAL_PRINT_COUNT, align 4, !tbaa !18
  %23 = add nsw i32 %22, 1
  store i32 %23, ptr @GLOBAL_PRINT_COUNT, align 4, !tbaa !18
  br label %24

24:                                               ; preds = %2, %21
  ret void
}